; Function Attrs: nounwind uwtable
define hidden noalias noundef ptr @_PyErr_FormatFromCauseTstate(ptr noundef captures(none) %0, ptr noundef %1, ptr noundef %2, ...) local_unnamed_addr #0 {
  %4 = alloca [1 x %struct.__va_list_tag], align 16
  call void @llvm.lifetime.start.p0(i64 24, ptr nonnull %4) #17
  call void @llvm.va_start.p0(ptr nonnull %4)
  call fastcc void @_PyErr_FormatVFromCause(ptr noundef %0, ptr noundef %1, ptr noundef %2, ptr noundef %4)
  call void @llvm.va_end.p0(ptr nonnull %4)
  call void @llvm.lifetime.end.p0(i64 24, ptr nonnull %4) #17
  ret ptr null
}